target datalayout = "e-m:e-p270:32:32-p271:32:32-p272:64:64-i64:64-i128:128-f80:128-n8:16:32:64-S128"
target triple = "x86_64-pc-linux-gnu"

%struct.png_struct_def = type { [1 x %struct.__jmp_buf_tag], ptr, ptr, i64, ptr, ptr, ptr, ptr, ptr, ptr, ptr, ptr, ptr, i8, i8, i32, i32, i32, i32, %struct.z_stream_s, ptr, i32, i32, i32, i32, i32, i32, i32, i32, i32, i32, i32, i32, i32, i32, i32, i32, i32, i32, i32, i32, i64, i32, i32, i32, ptr, ptr, ptr, ptr, i64, i32, i32, ptr, i16, i32, i16, i8, i8, i8, i8, i8, i8, i8, i8, i8, i8, i8, i8, i8, i8, i8, i16, i8, i32, %struct.png_color_16_struct, %struct.png_color_16_struct, ptr, i32, i32, i32, i32, ptr, ptr, ptr, ptr, ptr, ptr, %struct.png_color_8_struct, %struct.png_color_8_struct, ptr, %struct.png_color_16_struct, ptr, ptr, ptr, ptr, ptr, ptr, ptr, ptr, ptr, i32, i32, i64, i64, i64, i64, i32, i32, ptr, ptr, i32, [29 x i8], i32, ptr, ptr, i32, i32, ptr, i8, i8, i16, i16, ptr, i32, i8, ptr, ptr, ptr, ptr, ptr, ptr, ptr, i8, i32, i32, i32, i64, %struct.png_unknown_chunk_t, i64, ptr, i64, i32, i32, ptr, [4 x ptr], %struct.png_colorspace }
%struct.__jmp_buf_tag = type { [8 x i64], i32, %struct.__sigset_t }
%struct.__sigset_t = type { [16 x i64] }
%struct.z_stream_s = type { ptr, i32, i64, ptr, i32, i64, ptr, ptr, ptr, ptr, ptr, i32, i64, i64 }
%struct.png_color_8_struct = type { i8, i8, i8, i8, i8 }
%struct.png_color_16_struct = type { i8, i16, i16, i16, i16 }
%struct.png_unknown_chunk_t = type { [5 x i8], ptr, i64, i8 }
%struct.png_colorspace = type { i32, %struct.png_xy, %struct.png_XYZ, i16, i16 }
%struct.png_xy = type { i32, i32, i32, i32, i32, i32, i32, i32 }
%struct.png_XYZ = type { i32, i32, i32, i32, i32, i32, i32, i32, i32 }

; Function Attrs: nounwind uwtable
define void @png_process_some_data(ptr noalias noundef %0, ptr noalias noundef %1) #0 {
  %3 = alloca ptr, align 8
  %4 = alloca ptr, align 8
  store ptr %0, ptr %3, align 8
  store ptr %1, ptr %4, align 8
  %5 = load ptr, ptr %3, align 8
  %6 = icmp eq ptr %5, null
  br i1 %6, label %7, label %8

7:                                                ; preds = %2
  br label %23

8:                                                ; preds = %2
  %9 = load ptr, ptr %3, align 8
  %10 = getelementptr inbounds %struct.png_struct_def, ptr %9, i32 0, i32 106
  %11 = load i32, ptr %10, align 8
  switch i32 %11, label %20 [
    i32 0, label %12
    i32 1, label %15
    i32 2, label %18
  ]

12:                                               ; preds = %8
  %13 = load ptr, ptr %3, align 8
  %14 = load ptr, ptr %4, align 8
  call void @png_push_read_sig(ptr noundef %13, ptr noundef %14)
  br label %23

15:                                               ; preds = %8
  %16 = load ptr, ptr %3, align 8
  %17 = load ptr, ptr %4, align 8
  call void @png_push_read_chunk(ptr noundef %16, ptr noundef %17)
  br label %23

18:                                               ; preds = %8
  %19 = load ptr, ptr %3, align 8
  call void @png_push_read_IDAT(ptr noundef %19)
  br label %23

20:                                               ; preds = %8
  %21 = load ptr, ptr %3, align 8
  %22 = getelementptr inbounds %struct.png_struct_def, ptr %21, i32 0, i32 104
  store i64 0, ptr %22, align 8
  br label %23

23:                                               ; preds = %20, %18, %15, %12, %7
  ret void
}

; Function Attrs: nounwind uwtable
define void @png_push_restore_buffer(ptr noalias noundef %0, ptr noundef %1, i64 noundef %2) #0 {
  %4 = alloca ptr, align 8
  %5 = alloca ptr, align 8
  %6 = alloca i64, align 8
  store ptr %0, ptr %4, align 8
  store ptr %1, ptr %5, align 8
  store i64 %2, ptr %6, align 8
  %7 = load ptr, ptr %5, align 8
  %8 = load ptr, ptr %4, align 8
  %9 = getelementptr inbounds %struct.png_struct_def, ptr %8, i32 0, i32 99
  store ptr %7, ptr %9, align 8
  %10 = load i64, ptr %6, align 8
  %11 = load ptr, ptr %4, align 8
  %12 = getelementptr inbounds %struct.png_struct_def, ptr %11, i32 0, i32 105
  store i64 %10, ptr %12, align 8
  %13 = load i64, ptr %6, align 8
  %14 = load ptr, ptr %4, align 8
  %15 = getelementptr inbounds %struct.png_struct_def, ptr %14, i32 0, i32 102
  %16 = load i64, ptr %15, align 8
  %17 = add i64 %13, %16
  %18 = load ptr, ptr %4, align 8
  %19 = getelementptr inbounds %struct.png_struct_def, ptr %18, i32 0, i32 104
  store i64 %17, ptr %19, align 8
  %20 = load ptr, ptr %4, align 8
  %21 = getelementptr inbounds %struct.png_struct_def, ptr %20, i32 0, i32 99
  %22 = load ptr, ptr %21, align 8
  %23 = load ptr, ptr %4, align 8
  %24 = getelementptr inbounds %struct.png_struct_def, ptr %23, i32 0, i32 98
  store ptr %22, ptr %24, align 8
  ret void
}

; Function Attrs: nounwind uwtable
define void @png_process_data(ptr noalias noundef %0, ptr noalias noundef %1, ptr noundef %2, i64 noundef %3) #0 {
  %5 = alloca ptr, align 8
  %6 = alloca ptr, align 8
  %7 = alloca ptr, align 8
  %8 = alloca i64, align 8
  store ptr %0, ptr %5, align 8
  store ptr %1, ptr %6, align 8
  store ptr %2, ptr %7, align 8
  store i64 %3, ptr %8, align 8
  %9 = load ptr, ptr %5, align 8
  %10 = icmp eq ptr %9, null
  br i1 %10, label %14, label %11

11:                                               ; preds = %4
  %12 = load ptr, ptr %6, align 8
  %13 = icmp eq ptr %12, null
  br i1 %13, label %14, label %15

14:                                               ; preds = %11, %4
  br label %27

15:                                               ; preds = %11
  %16 = load ptr, ptr %5, align 8
  %17 = load ptr, ptr %7, align 8
  %18 = load i64, ptr %8, align 8
  call void @png_push_restore_buffer(ptr noundef %16, ptr noundef %17, i64 noundef %18)
  br label %19

19:                                               ; preds = %24, %15
  %20 = load ptr, ptr %5, align 8
  %21 = getelementptr inbounds %struct.png_struct_def, ptr %20, i32 0, i32 104
  %22 = load i64, ptr %21, align 8
  %23 = icmp ne i64 %22, 0
  br i1 %23, label %24, label %27

24:                                               ; preds = %19
  %25 = load ptr, ptr %5, align 8
  %26 = load ptr, ptr %6, align 8
  call void @png_process_some_data(ptr noundef %25, ptr noundef %26)
  br label %19, !llvm.loop !4

27:                                               ; preds = %19, %14
  ret void
}